target datalayout = "e-m:e-p270:32:32-p271:32:32-p272:64:64-i64:64-i128:128-f80:128-n8:16:32:64-S128"
target triple = "x86_64-pc-linux-gnu"

%class.anon.5 = type { ptr, ptr }

; Function Attrs: inlinehint mustprogress uwtable
define internal noundef i32 @"_ZZN4lean2ir8run_mainERKNS_16elab_environmentERKNS_7optionsEiPPcENK3$_0clERNS0_11interpreterE"(ptr noundef nonnull align 8 dereferenceable(16) %0, ptr noundef nonnull align 8 dereferenceable(112) %1) #1 align 2 {
  %3 = alloca ptr, align 8
  %4 = alloca ptr, align 8
  store ptr %0, ptr %3, align 8, !tbaa !3
  store ptr %1, ptr %4, align 8, !tbaa !71
  %5 = load ptr, ptr %3, align 8
  %6 = load ptr, ptr %4, align 8, !tbaa !71
  %7 = getelementptr inbounds nuw %class.anon.5, ptr %5, i32 0, i32 0
  %8 = load ptr, ptr %7, align 8, !tbaa !454
  %9 = load i32, ptr %8, align 4, !tbaa !15
  %10 = getelementptr inbounds nuw %class.anon.5, ptr %5, i32 0, i32 1
  %11 = load ptr, ptr %10, align 8, !tbaa !456
  %12 = load ptr, ptr %11, align 8, !tbaa !104
  %13 = call noundef i32 @_ZN4lean2ir11interpreter8run_mainEiPPc(ptr noundef nonnull align 8 dereferenceable(112) %6, i32 noundef %9, ptr noundef %12)
  ret i32 %13
}

; Function Attrs: mustprogress nounwind uwtable
define linkonce_odr hidden noundef ptr @_ZNKSt9_Any_data9_M_accessEv(ptr noundef nonnull align 8 dereferenceable(16) %0) #2 comdat align 2 {
  %2 = alloca ptr, align 8
  store ptr %0, ptr %2, align 8, !tbaa !321
  %3 = load ptr, ptr %2, align 8
  %4 = getelementptr inbounds [16 x i8], ptr %3, i64 0, i64 0
  ret ptr %4
}

; Function Attrs: mustprogress uwtable
define internal noundef i32 @"_ZSt13__invoke_implIjRZN4lean2ir8run_mainERKNS0_16elab_environmentERKNS0_7optionsEiPPcE3$_0JRNS1_11interpreterEEET_St14__invoke_otherOT0_DpOT1_"(ptr noundef nonnull align 8 dereferenceable(16) %0, ptr noundef nonnull align 8 dereferenceable(112) %1) #0 {
  %3 = alloca ptr, align 8
  %4 = alloca ptr, align 8
  store ptr %0, ptr %3, align 8, !tbaa !3
  store ptr %1, ptr %4, align 8, !tbaa !71
  %5 = load ptr, ptr %3, align 8, !tbaa !3
  %6 = load ptr, ptr %4, align 8, !tbaa !71
  %7 = call noundef i32 @"_ZZN4lean2ir8run_mainERKNS_16elab_environmentERKNS_7optionsEiPPcENK3$_0clERNS0_11interpreterE"(ptr noundef nonnull align 8 dereferenceable(16) %5, ptr noundef nonnull align 8 dereferenceable(112) %6)
  ret i32 %7
}

; Function Attrs: mustprogress nounwind uwtable
define internal noundef nonnull align 8 dereferenceable(16) ptr @"_ZNKSt9_Any_data9_M_accessIZN4lean2ir8run_mainERKNS1_16elab_environmentERKNS1_7optionsEiPPcE3$_0EERKT_v"(ptr noundef nonnull align 8 dereferenceable(16) %0) #2 align 2 {
  %2 = alloca ptr, align 8
  store ptr %0, ptr %2, align 8, !tbaa !321
  %3 = load ptr, ptr %2, align 8
  %4 = call noundef ptr @_ZNKSt9_Any_data9_M_accessEv(ptr noundef nonnull align 8 dereferenceable(16) %3) #18
  ret ptr %4
}

; Function Attrs: mustprogress uwtable
define internal noundef i32 @"_ZSt10__invoke_rIjRZN4lean2ir8run_mainERKNS0_16elab_environmentERKNS0_7optionsEiPPcE3$_0JRNS1_11interpreterEEENSt9enable_ifIXntsr7is_voidIT_EE5valueESF_E4typeEOT0_DpOT1_"(ptr noundef nonnull align 8 dereferenceable(16) %0, ptr noundef nonnull align 8 dereferenceable(112) %1) #0 {
  %3 = alloca ptr, align 8
  %4 = alloca ptr, align 8
  store ptr %0, ptr %3, align 8, !tbaa !3
  store ptr %1, ptr %4, align 8, !tbaa !71
  %5 = load ptr, ptr %3, align 8, !tbaa !3
  %6 = load ptr, ptr %4, align 8, !tbaa !71
  %7 = call noundef i32 @"_ZSt13__invoke_implIjRZN4lean2ir8run_mainERKNS0_16elab_environmentERKNS0_7optionsEiPPcE3$_0JRNS1_11interpreterEEET_St14__invoke_otherOT0_DpOT1_"(ptr noundef nonnull align 8 dereferenceable(16) %5, ptr noundef nonnull align 8 dereferenceable(112) %6)
  ret i32 %7
}

; Function Attrs: mustprogress nounwind uwtable
define internal noundef ptr @"_ZNSt14_Function_base13_Base_managerIZN4lean2ir8run_mainERKNS1_16elab_environmentERKNS1_7optionsEiPPcE3$_0E14_M_get_pointerERKSt9_Any_data"(ptr noundef nonnull align 8 dereferenceable(16) %0) #2 align 2 {
  %2 = alloca ptr, align 8
  %3 = alloca ptr, align 8
  store ptr %0, ptr %2, align 8, !tbaa !321
  call void @llvm.lifetime.start.p0(i64 8, ptr %3) #18
  %4 = load ptr, ptr %2, align 8, !tbaa !321
  %5 = call noundef nonnull align 8 dereferenceable(16) ptr @"_ZNKSt9_Any_data9_M_accessIZN4lean2ir8run_mainERKNS1_16elab_environmentERKNS1_7optionsEiPPcE3$_0EERKT_v"(ptr noundef nonnull align 8 dereferenceable(16) %4) #18
  store ptr %5, ptr %3, align 8, !tbaa !3
  %6 = load ptr, ptr %3, align 8, !tbaa !3
  call void @llvm.lifetime.end.p0(i64 8, ptr %3) #18
  ret ptr %6
}

; Function Attrs: mustprogress uwtable
define internal noundef i32 @"_ZNSt17_Function_handlerIFjRN4lean2ir11interpreterEEZNS1_8run_mainERKNS0_16elab_environmentERKNS0_7optionsEiPPcE3$_0E9_M_invokeERKSt9_Any_dataS3_"(ptr noundef nonnull align 8 dereferenceable(16) %0, ptr noundef nonnull align 8 dereferenceable(112) %1) #0 align 2 {
  %3 = alloca ptr, align 8
  %4 = alloca ptr, align 8
  store ptr %0, ptr %3, align 8, !tbaa !321
  store ptr %1, ptr %4, align 8, !tbaa !71
  %5 = load ptr, ptr %3, align 8, !tbaa !321
  %6 = call noundef ptr @"_ZNSt14_Function_base13_Base_managerIZN4lean2ir8run_mainERKNS1_16elab_environmentERKNS1_7optionsEiPPcE3$_0E14_M_get_pointerERKSt9_Any_data"(ptr noundef nonnull align 8 dereferenceable(16) %5) #18
  %7 = load ptr, ptr %4, align 8, !tbaa !71
  %8 = call noundef i32 @"_ZSt10__invoke_rIjRZN4lean2ir8run_mainERKNS0_16elab_environmentERKNS0_7optionsEiPPcE3$_0JRNS1_11interpreterEEENSt9enable_ifIXntsr7is_voidIT_EE5valueESF_E4typeEOT0_DpOT1_"(ptr noundef nonnull align 8 dereferenceable(16) %6, ptr noundef nonnull align 8 dereferenceable(112) %7)
  ret i32 %8
}