; Function Attrs: mustprogress uwtable
define internal noundef i32 @"_ZNSt17_Function_handlerIFjRN4lean2ir11interpreterEEZNS1_8run_mainERKNS0_16elab_environmentERKNS0_7optionsEiPPcE3$_0E9_M_invokeERKSt9_Any_dataS3_"(ptr noundef nonnull readonly align 8 captures(none) dereferenceable(16) %0, ptr noundef nonnull align 8 dereferenceable(112) %1) #0 align 2 {
  %.val = load ptr, ptr %0, align 8, !tbaa !485
  %3 = getelementptr inbounds nuw i8, ptr %0, i64 8
  %.val2 = load ptr, ptr %3, align 8, !tbaa !487
  %.val.val = load i32, ptr %.val, align 4, !tbaa !38
  %.val2.val = load ptr, ptr %.val2, align 8, !tbaa !87
  %4 = tail call noundef i32 @_ZN4lean2ir11interpreter8run_mainEiPPc(ptr noundef nonnull align 8 dereferenceable(112) %1, i32 noundef %.val.val, ptr noundef %.val2.val)
  ret i32 %4
}